target datalayout = "e-m:e-p270:32:32-p271:32:32-p272:64:64-i64:64-i128:128-f80:128-n8:16:32:64-S128"
target triple = "x86_64-pc-linux-gnu"

%struct.darktable_t = type { %struct.dt_codepath_t, i32, i32, ptr, ptr, ptr, ptr, ptr, ptr, ptr, ptr, ptr, ptr, ptr, ptr, ptr, ptr, ptr, ptr, ptr, ptr, ptr, ptr, ptr, ptr, ptr, ptr, ptr, ptr, ptr, [64 x %struct.dt_pthread_mutex_t], %struct.dt_pthread_mutex_t, %struct.dt_pthread_mutex_t, %struct.dt_pthread_mutex_t, %struct.dt_pthread_mutex_t, %struct.dt_pthread_mutex_t, ptr, ptr, ptr, ptr, ptr, ptr, ptr, ptr, ptr, ptr, ptr, ptr, ptr, %struct.dt_lua_state_t, ptr, double, ptr, i32, [47 x i32], i32, i32, ptr, ptr, %struct.dt_sys_resources_t, %struct.dt_backthumb_t, %struct.dt_gimp_t }
%struct.dt_codepath_t = type { i8, [3 x i8] }
%struct.dt_pthread_mutex_t = type { %union.pthread_mutex_t }
%union.pthread_mutex_t = type { %struct.__pthread_mutex_s }
%struct.__pthread_mutex_s = type { i32, i32, i32, i32, i32, i16, i16, %struct.__pthread_internal_list }
%struct.__pthread_internal_list = type { ptr, ptr }
%struct.dt_lua_state_t = type { i32 }
%struct.dt_sys_resources_t = type { i64, i64, ptr, ptr, i32 }
%struct.dt_backthumb_t = type { double, double, i32, i32, i32, i32 }
%struct.dt_gimp_t = type { i32, ptr, ptr, i32, i32 }
%struct.dt_image_t = type { i32, i32, float, float, float, float, float, float, float, [64 x i8], [64 x i8], [128 x i8], [64 x i8], [64 x i8], [64 x i8], [64 x i8], i64, i32, %union.dt_image_correction_data_t, [64 x i8], [64 x i8], [64 x i8], [128 x i8], i32, [256 x i8], i32, i32, i32, i32, i32, i32, i32, i32, i32, i32, float, i32, i32, i32, i32, i32, i32, i64, i64, i64, i64, i32, [12 x i8], %struct.dt_iop_buffer_dsc_t, [9 x float], ptr, i32, i32, %struct.dt_image_raw_parameters_t, %struct.dt_image_geoloc_t, %struct._color_harmony_t, i16, [4 x i16], i32, i32, float, float, [4 x float], [4 x [3 x float]], [4 x float], ptr, ptr, i32, i32, [8 x i8] }
%union.dt_image_correction_data_t = type { %struct.anon.16 }
%struct.anon.16 = type { i32, float, [11 x float], [11 x float], [11 x float], [11 x float], [11 x float] }
%struct.dt_iop_buffer_dsc_t = type { i32, i32, i32, [6 x [6 x i8]], %struct.anon.19, [12 x i8], %struct.anon.20, [4 x float], i32, [12 x i8] }
%struct.anon.19 = type { i16, i16 }
%struct.anon.20 = type { i32, [12 x i8], [4 x float] }
%struct.dt_image_raw_parameters_t = type { i32 }
%struct.dt_image_geoloc_t = type { double, double, double }
%struct._color_harmony_t = type { i32, i32, i32 }
%struct.dt_develop_t = type { i32, i32, i32, ptr, double, double, i32, i32, i32, i32, i32, double, i32, i32, i32, ptr, ptr, [8 x i8], %struct.dt_image_t, i32, i32, %struct.dt_pthread_mutex_t, i32, ptr, i32, ptr, i32, ptr, ptr, i32, ptr, ptr, ptr, ptr, i32, i32, ptr, ptr, ptr, ptr, i32, i32, i32, float, float, ptr, i32, %struct.anon.22, %struct.dt_dev_chroma_t, %struct.anon.25, %struct.anon.26, %struct.anon.27, %struct.anon.28, %struct.anon.29, %struct.anon.30, ptr, ptr, %struct.dt_dev_viewport_t, %struct.dt_dev_viewport_t, i32, i32, i32, ptr, [8 x i8] }
%struct.anon.22 = type { %struct.dt_dev_proxy_exposure_t, ptr, %struct.anon.23, %struct.anon.24 }
%struct.dt_dev_proxy_exposure_t = type { ptr, ptr, ptr, ptr }
%struct.anon.23 = type { ptr, ptr, ptr, ptr, ptr, ptr, ptr, ptr, ptr }
%struct.anon.24 = type { ptr, ptr, ptr, ptr, ptr }
%struct.dt_dev_chroma_t = type { ptr, ptr, [4 x double], [4 x double], [4 x double], i32 }
%struct.anon.25 = type { ptr, ptr, ptr }
%struct.anon.26 = type { ptr, ptr, i32, i32, float, float, i32 }
%struct.anon.27 = type { ptr, ptr, i32, i32, i32, float }
%struct.anon.28 = type { ptr }
%struct.anon.29 = type { ptr, i32 }
%struct.anon.30 = type { ptr, ptr, ptr }
%struct.dt_dev_viewport_t = type { ptr, i32, i32, i32, i32, i32, double, double, double, i32, i32, i32, float, float, float, ptr }
%struct._apply_styles_data_t = type { ptr, ptr, i32 }

@darktable = external global %struct.darktable_t, align 8

; Function Attrs: nounwind uwtable
define internal void @_add_history_job(ptr noundef %0, ptr noundef %1, ptr noundef %2, ptr noundef %3) #0 {
  %5 = alloca ptr, align 8
  %6 = alloca ptr, align 8
  %7 = alloca ptr, align 8
  %8 = alloca ptr, align 8
  %9 = alloca ptr, align 8
  store ptr %0, ptr %5, align 8, !tbaa !60
  store ptr %1, ptr %6, align 8, !tbaa !49
  store ptr %2, ptr %7, align 8, !tbaa !6
  store ptr %3, ptr %8, align 8, !tbaa !141
  %10 = load ptr, ptr %5, align 8, !tbaa !60
  %11 = icmp ne ptr %10, null
  br i1 %11, label %12, label %15

12:                                               ; preds = %4
  %13 = load ptr, ptr %7, align 8, !tbaa !6
  %14 = icmp ne ptr %13, null
  br i1 %14, label %16, label %15

15:                                               ; preds = %12, %4
  br label %82

16:                                               ; preds = %12
  call void @llvm.lifetime.start.p0(i64 8, ptr %9) #14
  %17 = load ptr, ptr getelementptr inbounds nuw (%struct.darktable_t, ptr @darktable, i32 0, i32 9), align 8, !tbaa !143
  %18 = icmp ne ptr %17, null
  br i1 %18, label %19, label %28

19:                                               ; preds = %16
  %20 = load ptr, ptr %5, align 8, !tbaa !60
  %21 = load ptr, ptr getelementptr inbounds nuw (%struct.darktable_t, ptr @darktable, i32 0, i32 9), align 8, !tbaa !143
  %22 = getelementptr inbounds nuw %struct.dt_develop_t, ptr %21, i32 0, i32 18
  %23 = getelementptr inbounds nuw %struct.dt_image_t, ptr %22, i32 0, i32 40
  %24 = load i32, ptr %23, align 8, !tbaa !144
  %25 = sext i32 %24 to i64
  %26 = inttoptr i64 %25 to ptr
  %27 = call ptr @g_list_find(ptr noundef %20, ptr noundef %26)
  br label %29

28:                                               ; preds = %16
  br label %29

29:                                               ; preds = %28, %19
  %30 = phi ptr [ %27, %19 ], [ null, %28 ]
  store ptr %30, ptr %9, align 8, !tbaa !60
  %31 = load ptr, ptr %9, align 8, !tbaa !60
  %32 = icmp ne ptr %31, null
  br i1 %32, label %33, label %64

33:                                               ; preds = %29
  %34 = load ptr, ptr %5, align 8, !tbaa !60
  %35 = load ptr, ptr %9, align 8, !tbaa !60
  %36 = call ptr @g_list_remove_link(ptr noundef %34, ptr noundef %35)
  store ptr %36, ptr %5, align 8, !tbaa !60
  %37 = load ptr, ptr %8, align 8, !tbaa !141
  %38 = icmp ne ptr %37, null
  br i1 %38, label %39, label %43

39:                                               ; preds = %33
  %40 = load ptr, ptr %9, align 8, !tbaa !60
  %41 = load ptr, ptr %8, align 8, !tbaa !141
  %42 = getelementptr inbounds nuw %struct._apply_styles_data_t, ptr %41, i32 0, i32 0
  store ptr %40, ptr %42, align 8, !tbaa !161
  br label %43

43:                                               ; preds = %39, %33
  %44 = load ptr, ptr getelementptr inbounds nuw (%struct.darktable_t, ptr @darktable, i32 0, i32 12), align 8, !tbaa !10
  %45 = load ptr, ptr %7, align 8, !tbaa !6
  %46 = load ptr, ptr %6, align 8, !tbaa !49
  %47 = load ptr, ptr %8, align 8, !tbaa !141
  %48 = icmp ne ptr %47, null
  br i1 %48, label %49, label %51

49:                                               ; preds = %43
  %50 = load ptr, ptr %8, align 8, !tbaa !141
  br label %53

51:                                               ; preds = %43
  %52 = load ptr, ptr %9, align 8, !tbaa !60
  br label %53

53:                                               ; preds = %51, %49
  %54 = phi ptr [ %50, %49 ], [ %52, %51 ]
  %55 = call ptr @dt_control_generic_images_job_create(ptr noundef %45, ptr noundef %46, i32 noundef 0, ptr noundef %54, i32 noundef 3, i32 noundef 0)
  %56 = call i32 @dt_control_add_job(ptr noundef %44, i32 noundef 1000, ptr noundef %55)
  %57 = load ptr, ptr %8, align 8, !tbaa !141
  %58 = icmp ne ptr %57, null
  br i1 %58, label %59, label %63

59:                                               ; preds = %53
  %60 = load ptr, ptr %5, align 8, !tbaa !60
  %61 = load ptr, ptr %8, align 8, !tbaa !141
  %62 = getelementptr inbounds nuw %struct._apply_styles_data_t, ptr %61, i32 0, i32 0
  store ptr %60, ptr %62, align 8, !tbaa !161
  br label %63

63:                                               ; preds = %59, %53
  br label %64

64:                                               ; preds = %63, %29
  %65 = load ptr, ptr %5, align 8, !tbaa !60
  %66 = icmp ne ptr %65, null
  br i1 %66, label %67, label %81

67:                                               ; preds = %64
  %68 = load ptr, ptr getelementptr inbounds nuw (%struct.darktable_t, ptr @darktable, i32 0, i32 12), align 8, !tbaa !10
  %69 = load ptr, ptr %7, align 8, !tbaa !6
  %70 = load ptr, ptr %6, align 8, !tbaa !49
  %71 = load ptr, ptr %8, align 8, !tbaa !141
  %72 = icmp ne ptr %71, null
  br i1 %72, label %73, label %75

73:                                               ; preds = %67
  %74 = load ptr, ptr %8, align 8, !tbaa !141
  br label %77

75:                                               ; preds = %67
  %76 = load ptr, ptr %5, align 8, !tbaa !60
  br label %77

77:                                               ; preds = %75, %73
  %78 = phi ptr [ %74, %73 ], [ %76, %75 ]
  %79 = call ptr @dt_control_generic_images_job_create(ptr noundef %69, ptr noundef %70, i32 noundef 0, ptr noundef %78, i32 noundef 3, i32 noundef 0)
  %80 = call i32 @dt_control_add_job(ptr noundef %68, i32 noundef 0, ptr noundef %79)
  br label %81

81:                                               ; preds = %77, %64
  call void @llvm.lifetime.end.p0(i64 8, ptr %9) #14
  br label %82

82:                                               ; preds = %81, %15
  ret void
}