; Function Attrs: nounwind uwtable
define internal fastcc void @_add_history_job(ptr noundef %0, ptr noundef %1, ptr noundef %2, ptr noundef %3) unnamed_addr #0 {
  %5 = icmp ne ptr %0, null
  %6 = icmp ne ptr %2, null
  %or.cond = and i1 %5, %6
  br i1 %or.cond, label %7, label %29

7:                                                ; preds = %4
  %8 = load ptr, ptr getelementptr inbounds nuw (i8, ptr @darktable, i64 64), align 8, !tbaa !129
  %.not = icmp eq ptr %8, null
  br i1 %.not, label %.thread34, label %9

9:                                                ; preds = %7
  %10 = getelementptr inbounds nuw i8, ptr %8, i64 1544
  %11 = load i32, ptr %10, align 8, !tbaa !130
  %12 = sext i32 %11 to i64
  %13 = inttoptr i64 %12 to ptr
  %14 = tail call ptr @g_list_find(ptr noundef nonnull %0, ptr noundef %13) #17
  %.not29 = icmp eq ptr %14, null
  br i1 %.not29, label %.thread34, label %15

15:                                               ; preds = %9
  %16 = tail call ptr @g_list_remove_link(ptr noundef nonnull %0, ptr noundef nonnull %14) #17
  %.not30 = icmp eq ptr %3, null
  br i1 %.not30, label %.critedge, label %17

17:                                               ; preds = %15
  store ptr %14, ptr %3, align 8, !tbaa !147
  %18 = load ptr, ptr getelementptr inbounds nuw (i8, ptr @darktable, i64 88), align 8, !tbaa !6
  %19 = tail call fastcc ptr @dt_control_generic_images_job_create(ptr noundef nonnull %2, ptr noundef %1, i32 noundef 0, ptr noundef nonnull %3, i32 noundef 3, i32 noundef 0)
  %20 = tail call i32 @dt_control_add_job(ptr noundef %18, i32 noundef 1000, ptr noundef %19) #17
  store ptr %16, ptr %3, align 8, !tbaa !147
  br label %24

.critedge:                                        ; preds = %15
  %21 = load ptr, ptr getelementptr inbounds nuw (i8, ptr @darktable, i64 88), align 8, !tbaa !6
  %22 = tail call fastcc ptr @dt_control_generic_images_job_create(ptr noundef nonnull %2, ptr noundef %1, i32 noundef 0, ptr noundef nonnull %14, i32 noundef 3, i32 noundef 0)
  %23 = tail call i32 @dt_control_add_job(ptr noundef %21, i32 noundef 1000, ptr noundef %22) #17
  br label %24

24:                                               ; preds = %.critedge, %17
  %.not31 = icmp eq ptr %16, null
  br i1 %.not31, label %29, label %.thread34

.thread34:                                        ; preds = %7, %9, %24
  %.037 = phi ptr [ %16, %24 ], [ %0, %9 ], [ %0, %7 ]
  %25 = load ptr, ptr getelementptr inbounds nuw (i8, ptr @darktable, i64 88), align 8, !tbaa !6
  %.not32 = icmp eq ptr %3, null
  %26 = select i1 %.not32, ptr %.037, ptr %3
  %27 = tail call fastcc ptr @dt_control_generic_images_job_create(ptr noundef nonnull %2, ptr noundef %1, i32 noundef 0, ptr noundef nonnull %26, i32 noundef 3, i32 noundef 0)
  %28 = tail call i32 @dt_control_add_job(ptr noundef %25, i32 noundef 0, ptr noundef %27) #17
  br label %29

29:                                               ; preds = %24, %.thread34, %4
  ret void
}